target datalayout = "e-m:e-p270:32:32-p271:32:32-p272:64:64-i64:64-i128:128-f80:128-n8:16:32:64-S128"
target triple = "x86_64-pc-linux-gnu"

%struct.grpc_slice = type { ptr, %"union.grpc_slice::grpc_slice_data" }
%"union.grpc_slice::grpc_slice_data" = type { %"struct.grpc_slice::grpc_slice_data::grpc_slice_refcounted", [8 x i8] }
%"struct.grpc_slice::grpc_slice_data::grpc_slice_refcounted" = type { i64, ptr }
%"struct.grpc_slice::grpc_slice_data::grpc_slice_inlined" = type { i8, [23 x i8] }

; Function Attrs: mustprogress nounwind uwtable
define i32 @grpc_slice_cmp(ptr noundef byval(%struct.grpc_slice) align 8 %0, ptr noundef byval(%struct.grpc_slice) align 8 %1) #7 {
  %3 = alloca i32, align 4
  %4 = alloca i32, align 4
  %5 = alloca i32, align 4
  call void @llvm.lifetime.start.p0(i64 4, ptr %4) #3
  %6 = getelementptr inbounds nuw %struct.grpc_slice, ptr %0, i32 0, i32 0
  %7 = load ptr, ptr %6, align 8, !tbaa !3
  %8 = icmp ne ptr %7, null
  br i1 %8, label %9, label %13

9:                                                ; preds = %2
  %10 = getelementptr inbounds nuw %struct.grpc_slice, ptr %0, i32 0, i32 1
  %11 = getelementptr inbounds nuw %"struct.grpc_slice::grpc_slice_data::grpc_slice_refcounted", ptr %10, i32 0, i32 0
  %12 = load i64, ptr %11, align 8, !tbaa !9
  br label %18

13:                                               ; preds = %2
  %14 = getelementptr inbounds nuw %struct.grpc_slice, ptr %0, i32 0, i32 1
  %15 = getelementptr inbounds nuw %"struct.grpc_slice::grpc_slice_data::grpc_slice_inlined", ptr %14, i32 0, i32 0
  %16 = load i8, ptr %15, align 8, !tbaa !9
  %17 = zext i8 %16 to i64
  br label %18

18:                                               ; preds = %13, %9
  %19 = phi i64 [ %12, %9 ], [ %17, %13 ]
  %20 = getelementptr inbounds nuw %struct.grpc_slice, ptr %1, i32 0, i32 0
  %21 = load ptr, ptr %20, align 8, !tbaa !3
  %22 = icmp ne ptr %21, null
  br i1 %22, label %23, label %27

23:                                               ; preds = %18
  %24 = getelementptr inbounds nuw %struct.grpc_slice, ptr %1, i32 0, i32 1
  %25 = getelementptr inbounds nuw %"struct.grpc_slice::grpc_slice_data::grpc_slice_refcounted", ptr %24, i32 0, i32 0
  %26 = load i64, ptr %25, align 8, !tbaa !9
  br label %32

27:                                               ; preds = %18
  %28 = getelementptr inbounds nuw %struct.grpc_slice, ptr %1, i32 0, i32 1
  %29 = getelementptr inbounds nuw %"struct.grpc_slice::grpc_slice_data::grpc_slice_inlined", ptr %28, i32 0, i32 0
  %30 = load i8, ptr %29, align 8, !tbaa !9
  %31 = zext i8 %30 to i64
  br label %32

32:                                               ; preds = %27, %23
  %33 = phi i64 [ %26, %23 ], [ %31, %27 ]
  %34 = sub i64 %19, %33
  %35 = trunc i64 %34 to i32
  store i32 %35, ptr %4, align 4, !tbaa !54
  %36 = load i32, ptr %4, align 4, !tbaa !54
  %37 = icmp ne i32 %36, 0
  br i1 %37, label %38, label %40

38:                                               ; preds = %32
  %39 = load i32, ptr %4, align 4, !tbaa !54
  store i32 %39, ptr %3, align 4
  store i32 1, ptr %5, align 4
  br label %82

40:                                               ; preds = %32
  %41 = getelementptr inbounds nuw %struct.grpc_slice, ptr %0, i32 0, i32 0
  %42 = load ptr, ptr %41, align 8, !tbaa !3
  %43 = icmp ne ptr %42, null
  br i1 %43, label %44, label %48

44:                                               ; preds = %40
  %45 = getelementptr inbounds nuw %struct.grpc_slice, ptr %0, i32 0, i32 1
  %46 = getelementptr inbounds nuw %"struct.grpc_slice::grpc_slice_data::grpc_slice_refcounted", ptr %45, i32 0, i32 1
  %47 = load ptr, ptr %46, align 8, !tbaa !9
  br label %52

48:                                               ; preds = %40
  %49 = getelementptr inbounds nuw %struct.grpc_slice, ptr %0, i32 0, i32 1
  %50 = getelementptr inbounds nuw %"struct.grpc_slice::grpc_slice_data::grpc_slice_inlined", ptr %49, i32 0, i32 1
  %51 = getelementptr inbounds [23 x i8], ptr %50, i64 0, i64 0
  br label %52

52:                                               ; preds = %48, %44
  %53 = phi ptr [ %47, %44 ], [ %51, %48 ]
  %54 = getelementptr inbounds nuw %struct.grpc_slice, ptr %1, i32 0, i32 0
  %55 = load ptr, ptr %54, align 8, !tbaa !3
  %56 = icmp ne ptr %55, null
  br i1 %56, label %57, label %61

57:                                               ; preds = %52
  %58 = getelementptr inbounds nuw %struct.grpc_slice, ptr %1, i32 0, i32 1
  %59 = getelementptr inbounds nuw %"struct.grpc_slice::grpc_slice_data::grpc_slice_refcounted", ptr %58, i32 0, i32 1
  %60 = load ptr, ptr %59, align 8, !tbaa !9
  br label %65

61:                                               ; preds = %52
  %62 = getelementptr inbounds nuw %struct.grpc_slice, ptr %1, i32 0, i32 1
  %63 = getelementptr inbounds nuw %"struct.grpc_slice::grpc_slice_data::grpc_slice_inlined", ptr %62, i32 0, i32 1
  %64 = getelementptr inbounds [23 x i8], ptr %63, i64 0, i64 0
  br label %65

65:                                               ; preds = %61, %57
  %66 = phi ptr [ %60, %57 ], [ %64, %61 ]
  %67 = getelementptr inbounds nuw %struct.grpc_slice, ptr %0, i32 0, i32 0
  %68 = load ptr, ptr %67, align 8, !tbaa !3
  %69 = icmp ne ptr %68, null
  br i1 %69, label %70, label %74

70:                                               ; preds = %65
  %71 = getelementptr inbounds nuw %struct.grpc_slice, ptr %0, i32 0, i32 1
  %72 = getelementptr inbounds nuw %"struct.grpc_slice::grpc_slice_data::grpc_slice_refcounted", ptr %71, i32 0, i32 0
  %73 = load i64, ptr %72, align 8, !tbaa !9
  br label %79

74:                                               ; preds = %65
  %75 = getelementptr inbounds nuw %struct.grpc_slice, ptr %0, i32 0, i32 1
  %76 = getelementptr inbounds nuw %"struct.grpc_slice::grpc_slice_data::grpc_slice_inlined", ptr %75, i32 0, i32 0
  %77 = load i8, ptr %76, align 8, !tbaa !9
  %78 = zext i8 %77 to i64
  br label %79

79:                                               ; preds = %74, %70
  %80 = phi i64 [ %73, %70 ], [ %78, %74 ]
  %81 = call i32 @memcmp(ptr noundef %53, ptr noundef %66, i64 noundef %80) #19
  store i32 %81, ptr %3, align 4
  store i32 1, ptr %5, align 4
  br label %82

82:                                               ; preds = %79, %38
  call void @llvm.lifetime.end.p0(i64 4, ptr %4) #3
  %83 = load i32, ptr %3, align 4
  ret i32 %83
}