; Function Attrs: mustprogress nofree nounwind willreturn memory(read, inaccessiblemem: none) uwtable
define i32 @grpc_slice_cmp(ptr noundef readonly byval(%struct.grpc_slice) align 8 captures(none) %0, ptr noundef readonly byval(%struct.grpc_slice) align 8 captures(none) %1) local_unnamed_addr #13 {
  %3 = load ptr, ptr %0, align 8, !tbaa !3
  %.not = icmp eq ptr %3, null
  %4 = getelementptr inbounds nuw i8, ptr %0, i64 8
  %5 = load i64, ptr %4, align 8
  %6 = and i64 %5, 255
  %7 = select i1 %.not, i64 %6, i64 %5
  %8 = load ptr, ptr %1, align 8, !tbaa !3
  %.not4 = icmp eq ptr %8, null
  %9 = getelementptr inbounds nuw i8, ptr %1, i64 8
  %10 = load i64, ptr %9, align 8
  %11 = and i64 %10, 255
  %12 = select i1 %.not4, i64 %11, i64 %10
  %13 = sub i64 %7, %12
  %14 = trunc i64 %13 to i32
  %.not5 = icmp eq i32 %14, 0
  br i1 %.not5, label %15, label %25

15:                                               ; preds = %2
  %16 = getelementptr inbounds nuw i8, ptr %0, i64 16
  %17 = load ptr, ptr %16, align 8
  %18 = getelementptr inbounds nuw i8, ptr %0, i64 9
  %19 = select i1 %.not, ptr %18, ptr %17
  %20 = getelementptr inbounds nuw i8, ptr %1, i64 16
  %21 = load ptr, ptr %20, align 8
  %22 = getelementptr inbounds nuw i8, ptr %1, i64 9
  %23 = select i1 %.not4, ptr %22, ptr %21
  %24 = call i32 @memcmp(ptr noundef %19, ptr noundef %23, i64 noundef %7) #29
  br label %25

25:                                               ; preds = %2, %15
  %.0 = phi i32 [ %24, %15 ], [ %14, %2 ]
  ret i32 %.0
}